; Function Attrs: mustprogress nounwind uwtable
define hidden void @_ZN16JvmtiThreadState7oops_doEP10OopClosureP14NMethodClosure(ptr noundef nonnull align 8 dereferenceable(184) %0, ptr noundef %1, ptr noundef %2) local_unnamed_addr #0 align 2 {
  %4 = getelementptr inbounds i8, ptr %0, i64 176
  %5 = load ptr, ptr %1, align 8
  %6 = load ptr, ptr %5, align 8
  tail call void %6(ptr noundef nonnull align 8 dereferenceable(8) %1, ptr noundef nonnull %4) #13
  %7 = getelementptr inbounds i8, ptr %0, i64 24
  %8 = load ptr, ptr %7, align 8
  %.not = icmp eq ptr %8, null
  br i1 %.not, label %10, label %9

9:                                                ; preds = %3
  tail call void @_ZN23JvmtiDeferredEventQueue7oops_doEP10OopClosureP14NMethodClosure(ptr noundef nonnull align 8 dereferenceable(16) %8, ptr noundef nonnull %1, ptr noundef %2) #13
  br label %10

10:                                               ; preds = %9, %3
  ret void
}